target datalayout = "e-m:e-p270:32:32-p271:32:32-p272:64:64-i64:64-i128:128-f80:128-n8:16:32:64-S128"
target triple = "x86_64-pc-linux-gnu"

%struct.png_struct_def = type { [1 x %struct.__jmp_buf_tag], ptr, ptr, i64, ptr, ptr, ptr, ptr, ptr, ptr, ptr, ptr, i8, i8, i32, i32, i32, i32, %struct.z_stream_s, i32, i32, i32, i32, i64, i32, i32, i32, ptr, ptr, i64, i32, i32, ptr, i16, i32, i16, i8, i8, i8, i8, i8, i8, i8, i8, i8, i8, i8, i8, i8, i8, i16, i8, i32, %struct.png_color_16_struct, %struct.png_color_16_struct, i32, i32, ptr, ptr, ptr, ptr, ptr, ptr, %struct.png_color_8_struct, %struct.png_color_8_struct, ptr, %struct.png_color_16_struct, ptr, ptr, ptr, ptr, ptr, ptr, ptr, ptr, ptr, i32, i32, i64, i64, i64, i64, i32, i32, ptr, ptr, [29 x i8], i32, ptr, ptr, i32, i32, ptr, i8, i8, i16, i16, ptr, i32, i8, ptr, ptr, ptr, ptr, ptr, ptr, ptr, i8, i32, i32, i32, i64, %struct.png_unknown_chunk_t, i64, ptr, i64, i32, i32, ptr, [4 x ptr], %struct.png_colorspace }
%struct.__jmp_buf_tag = type { [8 x i64], i32, %struct.__sigset_t }
%struct.__sigset_t = type { [16 x i64] }
%struct.z_stream_s = type { ptr, i32, i64, ptr, i32, i64, ptr, ptr, ptr, ptr, ptr, i32, i64, i64 }
%struct.png_color_8_struct = type { i8, i8, i8, i8, i8 }
%struct.png_color_16_struct = type { i8, i16, i16, i16, i16 }
%struct.png_unknown_chunk_t = type { [5 x i8], ptr, i64, i8 }
%struct.png_colorspace = type { i32, %struct.png_xy, %struct.png_XYZ, i16, i16 }
%struct.png_xy = type { i32, i32, i32, i32, i32, i32, i32, i32 }
%struct.png_XYZ = type { i32, i32, i32, i32, i32, i32, i32, i32, i32 }
%struct.png_image = type { ptr, i32, i32, i32, i32, i32, i32, i32, [64 x i8] }
%struct.png_control = type { ptr, ptr, ptr, ptr, i64, i8 }
%struct.png_image_read_control = type { ptr, ptr, i32, ptr, ptr, ptr, ptr, i64, i32, i32, i32 }

@png_sRGB_base = external constant [512 x i16], align 16
@png_sRGB_delta = external constant [512 x i8], align 16
@png_sRGB_table = external constant [256 x i16], align 16
@.str.52 = private unnamed_addr constant [23 x i8] c"unknown interlace type\00", align 1

; Function Attrs: nounwind uwtable
define internal i32 @png_image_read_composite(ptr noundef %0) #0 {
  %2 = alloca ptr, align 8
  %3 = alloca ptr, align 8
  %4 = alloca ptr, align 8
  %5 = alloca ptr, align 8
  %6 = alloca i32, align 4
  %7 = alloca i32, align 4
  %8 = alloca i32, align 4
  %9 = alloca i64, align 8
  %10 = alloca i32, align 4
  %11 = alloca i32, align 4
  %12 = alloca i32, align 4
  %13 = alloca i32, align 4
  %14 = alloca i32, align 4
  %15 = alloca i32, align 4
  %16 = alloca ptr, align 8
  %17 = alloca ptr, align 8
  %18 = alloca ptr, align 8
  %19 = alloca i8, align 1
  %20 = alloca i32, align 4
  %21 = alloca i32, align 4
  store ptr %0, ptr %2, align 8
  %22 = load ptr, ptr %2, align 8
  store ptr %22, ptr %3, align 8
  %23 = load ptr, ptr %3, align 8
  %24 = getelementptr inbounds %struct.png_image_read_control, ptr %23, i32 0, i32 0
  %25 = load ptr, ptr %24, align 8
  store ptr %25, ptr %4, align 8
  %26 = load ptr, ptr %4, align 8
  %27 = getelementptr inbounds %struct.png_image, ptr %26, i32 0, i32 0
  %28 = load ptr, ptr %27, align 8
  %29 = getelementptr inbounds %struct.png_control, ptr %28, i32 0, i32 0
  %30 = load ptr, ptr %29, align 8
  store ptr %30, ptr %5, align 8
  %31 = load ptr, ptr %5, align 8
  %32 = getelementptr inbounds %struct.png_struct_def, ptr %31, i32 0, i32 38
  %33 = load i8, ptr %32, align 4
  %34 = zext i8 %33 to i32
  switch i32 %34, label %37 [
    i32 0, label %35
    i32 1, label %36
  ]

35:                                               ; preds = %1
  store i32 1, ptr %6, align 4
  br label %39

36:                                               ; preds = %1
  store i32 7, ptr %6, align 4
  br label %39

37:                                               ; preds = %1
  %38 = load ptr, ptr %5, align 8
  call void @png_error(ptr noundef %38, ptr noundef @.str.52) #8
  unreachable

39:                                               ; preds = %36, %35
  %40 = load ptr, ptr %4, align 8
  %41 = getelementptr inbounds %struct.png_image, ptr %40, i32 0, i32 3
  %42 = load i32, ptr %41, align 8
  store i32 %42, ptr %7, align 4
  %43 = load ptr, ptr %4, align 8
  %44 = getelementptr inbounds %struct.png_image, ptr %43, i32 0, i32 2
  %45 = load i32, ptr %44, align 4
  store i32 %45, ptr %8, align 4
  %46 = load ptr, ptr %3, align 8
  %47 = getelementptr inbounds %struct.png_image_read_control, ptr %46, i32 0, i32 7
  %48 = load i64, ptr %47, align 8
  store i64 %48, ptr %9, align 8
  %49 = load ptr, ptr %4, align 8
  %50 = getelementptr inbounds %struct.png_image, ptr %49, i32 0, i32 4
  %51 = load i32, ptr %50, align 4
  %52 = and i32 %51, 2
  %53 = icmp ne i32 %52, 0
  %54 = select i1 %53, i32 3, i32 1
  store i32 %54, ptr %10, align 4
  store i32 0, ptr %11, align 4
  br label %55

55:                                               ; preds = %262, %39
  %56 = load i32, ptr %11, align 4
  %57 = load i32, ptr %6, align 4
  %58 = icmp slt i32 %56, %57
  br i1 %58, label %59, label %265

59:                                               ; preds = %55
  %60 = load ptr, ptr %5, align 8
  %61 = getelementptr inbounds %struct.png_struct_def, ptr %60, i32 0, i32 38
  %62 = load i8, ptr %61, align 4
  %63 = zext i8 %62 to i32
  %64 = icmp eq i32 %63, 1
  br i1 %64, label %65, label %135

65:                                               ; preds = %59
  %66 = load i32, ptr %8, align 4
  %67 = load i32, ptr %11, align 4
  %68 = icmp sgt i32 %67, 1
  br i1 %68, label %69, label %73

69:                                               ; preds = %65
  %70 = load i32, ptr %11, align 4
  %71 = sub nsw i32 7, %70
  %72 = ashr i32 %71, 1
  br label %74

73:                                               ; preds = %65
  br label %74

74:                                               ; preds = %73, %69
  %75 = phi i32 [ %72, %69 ], [ 3, %73 ]
  %76 = shl i32 1, %75
  %77 = sub nsw i32 %76, 1
  %78 = load i32, ptr %11, align 4
  %79 = and i32 1, %78
  %80 = load i32, ptr %11, align 4
  %81 = add nsw i32 %80, 1
  %82 = ashr i32 %81, 1
  %83 = sub nsw i32 3, %82
  %84 = shl i32 %79, %83
  %85 = and i32 %84, 7
  %86 = sub nsw i32 %77, %85
  %87 = add i32 %66, %86
  %88 = load i32, ptr %11, align 4
  %89 = icmp sgt i32 %88, 1
  br i1 %89, label %90, label %94

90:                                               ; preds = %74
  %91 = load i32, ptr %11, align 4
  %92 = sub nsw i32 7, %91
  %93 = ashr i32 %92, 1
  br label %95

94:                                               ; preds = %74
  br label %95

95:                                               ; preds = %94, %90
  %96 = phi i32 [ %93, %90 ], [ 3, %94 ]
  %97 = lshr i32 %87, %96
  %98 = icmp eq i32 %97, 0
  br i1 %98, label %99, label %100

99:                                               ; preds = %95
  br label %262

100:                                              ; preds = %95
  %101 = load i32, ptr %11, align 4
  %102 = and i32 1, %101
  %103 = load i32, ptr %11, align 4
  %104 = add nsw i32 %103, 1
  %105 = ashr i32 %104, 1
  %106 = sub nsw i32 3, %105
  %107 = shl i32 %102, %106
  %108 = and i32 %107, 7
  %109 = load i32, ptr %10, align 4
  %110 = mul i32 %108, %109
  store i32 %110, ptr %12, align 4
  %111 = load i32, ptr %11, align 4
  %112 = sub nsw i32 7, %111
  %113 = ashr i32 %112, 1
  %114 = shl i32 1, %113
  %115 = load i32, ptr %10, align 4
  %116 = mul i32 %114, %115
  store i32 %116, ptr %13, align 4
  %117 = load i32, ptr %11, align 4
  %118 = xor i32 %117, -1
  %119 = and i32 1, %118
  %120 = load i32, ptr %11, align 4
  %121 = ashr i32 %120, 1
  %122 = sub nsw i32 3, %121
  %123 = shl i32 %119, %122
  %124 = and i32 %123, 7
  store i32 %124, ptr %15, align 4
  %125 = load i32, ptr %11, align 4
  %126 = icmp sgt i32 %125, 2
  br i1 %126, label %127, label %132

127:                                              ; preds = %100
  %128 = load i32, ptr %11, align 4
  %129 = sub nsw i32 %128, 1
  %130 = ashr i32 %129, 1
  %131 = ashr i32 8, %130
  br label %133

132:                                              ; preds = %100
  br label %133

133:                                              ; preds = %132, %127
  %134 = phi i32 [ %131, %127 ], [ 8, %132 ]
  store i32 %134, ptr %14, align 4
  br label %137

135:                                              ; preds = %59
  store i32 0, ptr %15, align 4
  store i32 0, ptr %12, align 4
  %136 = load i32, ptr %10, align 4
  store i32 %136, ptr %13, align 4
  store i32 1, ptr %14, align 4
  br label %137

137:                                              ; preds = %135, %133
  br label %138

138:                                              ; preds = %257, %137
  %139 = load i32, ptr %15, align 4
  %140 = load i32, ptr %7, align 4
  %141 = icmp ult i32 %139, %140
  br i1 %141, label %142, label %261

142:                                              ; preds = %138
  %143 = load ptr, ptr %3, align 8
  %144 = getelementptr inbounds %struct.png_image_read_control, ptr %143, i32 0, i32 5
  %145 = load ptr, ptr %144, align 8
  store ptr %145, ptr %16, align 8
  %146 = load ptr, ptr %5, align 8
  %147 = load ptr, ptr %16, align 8
  call void @png_read_row(ptr noundef %146, ptr noundef %147, ptr noundef null)
  %148 = load ptr, ptr %3, align 8
  %149 = getelementptr inbounds %struct.png_image_read_control, ptr %148, i32 0, i32 6
  %150 = load ptr, ptr %149, align 8
  store ptr %150, ptr %17, align 8
  %151 = load i32, ptr %15, align 4
  %152 = zext i32 %151 to i64
  %153 = load i64, ptr %9, align 8
  %154 = mul nsw i64 %152, %153
  %155 = load ptr, ptr %17, align 8
  %156 = getelementptr inbounds i8, ptr %155, i64 %154
  store ptr %156, ptr %17, align 8
  %157 = load ptr, ptr %17, align 8
  %158 = load i32, ptr %8, align 4
  %159 = load i32, ptr %10, align 4
  %160 = mul i32 %158, %159
  %161 = zext i32 %160 to i64
  %162 = getelementptr inbounds i8, ptr %157, i64 %161
  store ptr %162, ptr %18, align 8
  %163 = load i32, ptr %12, align 4
  %164 = load ptr, ptr %17, align 8
  %165 = zext i32 %163 to i64
  %166 = getelementptr inbounds i8, ptr %164, i64 %165
  store ptr %166, ptr %17, align 8
  br label %167

167:                                              ; preds = %251, %142
  %168 = load ptr, ptr %17, align 8
  %169 = load ptr, ptr %18, align 8
  %170 = icmp ult ptr %168, %169
  br i1 %170, label %171, label %256

171:                                              ; preds = %167
  %172 = load ptr, ptr %16, align 8
  %173 = load i32, ptr %10, align 4
  %174 = zext i32 %173 to i64
  %175 = getelementptr inbounds i8, ptr %172, i64 %174
  %176 = load i8, ptr %175, align 1
  store i8 %176, ptr %19, align 1
  %177 = load i8, ptr %19, align 1
  %178 = zext i8 %177 to i32
  %179 = icmp sgt i32 %178, 0
  br i1 %179, label %180, label %245

180:                                              ; preds = %171
  store i32 0, ptr %20, align 4
  br label %181

181:                                              ; preds = %241, %180
  %182 = load i32, ptr %20, align 4
  %183 = load i32, ptr %10, align 4
  %184 = icmp ult i32 %182, %183
  br i1 %184, label %185, label %244

185:                                              ; preds = %181
  %186 = load ptr, ptr %16, align 8
  %187 = load i32, ptr %20, align 4
  %188 = zext i32 %187 to i64
  %189 = getelementptr inbounds i8, ptr %186, i64 %188
  %190 = load i8, ptr %189, align 1
  %191 = zext i8 %190 to i32
  store i32 %191, ptr %21, align 4
  %192 = load i8, ptr %19, align 1
  %193 = zext i8 %192 to i32
  %194 = icmp slt i32 %193, 255
  br i1 %194, label %195, label %234

195:                                              ; preds = %185
  %196 = load i32, ptr %21, align 4
  %197 = mul i32 %196, 65535
  store i32 %197, ptr %21, align 4
  %198 = load i8, ptr %19, align 1
  %199 = zext i8 %198 to i32
  %200 = sub nsw i32 255, %199
  %201 = load ptr, ptr %17, align 8
  %202 = load i32, ptr %20, align 4
  %203 = zext i32 %202 to i64
  %204 = getelementptr inbounds i8, ptr %201, i64 %203
  %205 = load i8, ptr %204, align 1
  %206 = zext i8 %205 to i64
  %207 = getelementptr inbounds [256 x i16], ptr @png_sRGB_table, i64 0, i64 %206
  %208 = load i16, ptr %207, align 2
  %209 = zext i16 %208 to i32
  %210 = mul nsw i32 %200, %209
  %211 = load i32, ptr %21, align 4
  %212 = add i32 %211, %210
  store i32 %212, ptr %21, align 4
  %213 = load i32, ptr %21, align 4
  %214 = lshr i32 %213, 15
  %215 = zext i32 %214 to i64
  %216 = getelementptr inbounds [512 x i16], ptr @png_sRGB_base, i64 0, i64 %215
  %217 = load i16, ptr %216, align 2
  %218 = zext i16 %217 to i32
  %219 = load i32, ptr %21, align 4
  %220 = and i32 %219, 32767
  %221 = load i32, ptr %21, align 4
  %222 = lshr i32 %221, 15
  %223 = zext i32 %222 to i64
  %224 = getelementptr inbounds [512 x i8], ptr @png_sRGB_delta, i64 0, i64 %223
  %225 = load i8, ptr %224, align 1
  %226 = zext i8 %225 to i32
  %227 = mul i32 %220, %226
  %228 = lshr i32 %227, 12
  %229 = add i32 %218, %228
  %230 = lshr i32 %229, 8
  %231 = and i32 255, %230
  %232 = trunc i32 %231 to i8
  %233 = zext i8 %232 to i32
  store i32 %233, ptr %21, align 4
  br label %234

234:                                              ; preds = %195, %185
  %235 = load i32, ptr %21, align 4
  %236 = trunc i32 %235 to i8
  %237 = load ptr, ptr %17, align 8
  %238 = load i32, ptr %20, align 4
  %239 = zext i32 %238 to i64
  %240 = getelementptr inbounds i8, ptr %237, i64 %239
  store i8 %236, ptr %240, align 1
  br label %241

241:                                              ; preds = %234
  %242 = load i32, ptr %20, align 4
  %243 = add i32 %242, 1
  store i32 %243, ptr %20, align 4
  br label %181, !llvm.loop !46

244:                                              ; preds = %181
  br label %245

245:                                              ; preds = %244, %171
  %246 = load i32, ptr %10, align 4
  %247 = add i32 %246, 1
  %248 = load ptr, ptr %16, align 8
  %249 = zext i32 %247 to i64
  %250 = getelementptr inbounds i8, ptr %248, i64 %249
  store ptr %250, ptr %16, align 8
  br label %251

251:                                              ; preds = %245
  %252 = load i32, ptr %13, align 4
  %253 = load ptr, ptr %17, align 8
  %254 = zext i32 %252 to i64
  %255 = getelementptr inbounds i8, ptr %253, i64 %254
  store ptr %255, ptr %17, align 8
  br label %167, !llvm.loop !47

256:                                              ; preds = %167
  br label %257

257:                                              ; preds = %256
  %258 = load i32, ptr %14, align 4
  %259 = load i32, ptr %15, align 4
  %260 = add i32 %259, %258
  store i32 %260, ptr %15, align 4
  br label %138, !llvm.loop !48

261:                                              ; preds = %138
  br label %262

262:                                              ; preds = %261, %99
  %263 = load i32, ptr %11, align 4
  %264 = add nsw i32 %263, 1
  store i32 %264, ptr %11, align 4
  br label %55, !llvm.loop !49

265:                                              ; preds = %55
  ret i32 1
}